; Function Attrs: mustprogress nofree norecurse nosync nounwind willreturn memory(argmem: read) uwtable
define noundef i32 @_ZN6LibRaw18find_ifd_by_offsetEi(ptr noundef nonnull readonly align 8 captures(none) dereferenceable(767680) %0, i32 noundef %1) local_unnamed_addr #12 align 2 {
  %3 = getelementptr inbounds nuw i8, ptr %0, i64 381536
  %4 = load i32, ptr %3, align 8, !tbaa !136
  %5 = icmp eq i32 %4, 0
  br i1 %5, label %._crit_edge, label %.lr.ph.preheader

.lr.ph.preheader:                                 ; preds = %2
  %6 = add i32 %4, -1
  %umin = tail call i32 @llvm.umin.i32(i32 %6, i32 9)
  %7 = add nuw nsw i32 %umin, 1
  %wide.trip.count = zext nneg i32 %7 to i64
  %8 = getelementptr inbounds nuw i8, ptr %0, i64 433356
  br label %.lr.ph

.lr.ph:                                           ; preds = %.lr.ph.preheader, %13
  %indvars.iv = phi i64 [ 0, %.lr.ph.preheader ], [ %indvars.iv.next, %13 ]
  %9 = mul nuw nsw i64 %indvars.iv, 33408
  %10 = getelementptr i8, ptr %8, i64 %9
  %11 = load i32, ptr %10, align 4, !tbaa !137
  %12 = icmp eq i32 %11, %1
  br i1 %12, label %._crit_edge.loopexit.split.loop.exit, label %13

13:                                               ; preds = %.lr.ph
  %indvars.iv.next = add nuw nsw i64 %indvars.iv, 1
  %exitcond = icmp eq i64 %indvars.iv.next, %wide.trip.count
  br i1 %exitcond, label %._crit_edge, label %.lr.ph, !llvm.loop !139

._crit_edge.loopexit.split.loop.exit:             ; preds = %.lr.ph
  %14 = trunc nuw nsw i64 %indvars.iv to i32
  br label %._crit_edge

._crit_edge:                                      ; preds = %13, %._crit_edge.loopexit.split.loop.exit, %2
  %spec.select = phi i32 [ -1, %2 ], [ %14, %._crit_edge.loopexit.split.loop.exit ], [ -1, %13 ]
  ret i32 %spec.select
}